; Function Attrs: mustprogress uwtable
define void @_ZN2mu6ParserC2Ev(ptr noundef nonnull align 8 dereferenceable(596) %0) unnamed_addr #1 align 2 personality ptr @__gxx_personality_v0 {
  tail call void @_ZN2mu10ParserBaseC2Ev(ptr noundef nonnull align 8 dereferenceable(596) %0)
  store ptr getelementptr inbounds inrange(-16, 56) ({ [9 x ptr] }, ptr @_ZTVN2mu6ParserE, i64 0, i32 0, i64 2), ptr %0, align 8
  invoke void @_ZN2mu10ParserBase11AddValIdentEPFiPKcPiPdE(ptr noundef nonnull align 8 dereferenceable(596) %0, ptr noundef nonnull @_ZN2mu6Parser5IsValEPKcPiPd)
          to label %2 unwind label %19

2:                                                ; preds = %1
  %3 = load ptr, ptr %0, align 8
  %4 = getelementptr inbounds i8, ptr %3, i64 16
  %5 = load ptr, ptr %4, align 8
  invoke void %5(ptr noundef nonnull align 8 dereferenceable(596) %0)
          to label %6 unwind label %19

6:                                                ; preds = %2
  %7 = load ptr, ptr %0, align 8
  %8 = getelementptr inbounds i8, ptr %7, i64 24
  %9 = load ptr, ptr %8, align 8
  invoke void %9(ptr noundef nonnull align 8 dereferenceable(596) %0)
          to label %10 unwind label %19

10:                                               ; preds = %6
  %11 = load ptr, ptr %0, align 8
  %12 = getelementptr inbounds i8, ptr %11, i64 32
  %13 = load ptr, ptr %12, align 8
  invoke void %13(ptr noundef nonnull align 8 dereferenceable(596) %0)
          to label %14 unwind label %19

14:                                               ; preds = %10
  %15 = load ptr, ptr %0, align 8
  %16 = getelementptr inbounds i8, ptr %15, i64 40
  %17 = load ptr, ptr %16, align 8
  invoke void %17(ptr noundef nonnull align 8 dereferenceable(596) %0)
          to label %18 unwind label %19

18:                                               ; preds = %14
  ret void

19:                                               ; preds = %14, %10, %6, %2, %1
  %20 = landingpad { ptr, i32 }
          cleanup
  tail call void @_ZN2mu10ParserBaseD2Ev(ptr noundef nonnull align 8 dereferenceable(596) %0) #12
  resume { ptr, i32 } %20
}